; Function Attrs: nounwind uwtable
define internal i32 @ecdsa_signverify_message_update(ptr noundef readonly captures(address_is_null) %0, ptr noundef %1, i64 noundef %2) #0 {
  %4 = icmp eq ptr %0, null
  br i1 %4, label %9, label %5

5:                                                ; preds = %3
  %6 = getelementptr inbounds nuw i8, ptr %0, i64 360
  %7 = load ptr, ptr %6, align 8, !tbaa !18
  %8 = tail call i32 @EVP_DigestUpdate(ptr noundef %7, ptr noundef %1, i64 noundef %2) #8
  br label %9

9:                                                ; preds = %3, %5
  %.0 = phi i32 [ %8, %5 ], [ 0, %3 ]
  ret i32 %.0
}